target datalayout = "e-m:e-p270:32:32-p271:32:32-p272:64:64-i64:64-i128:128-f80:128-n8:16:32:64-S128"
target triple = "x86_64-pc-linux-gnu"

%struct.Qureg = type { i32, i32, i32, i64, i64, i32, i32, %struct.ComplexArray, %struct.ComplexArray, %struct.ComplexArray, ptr, ptr, ptr, ptr, ptr, ptr }
%struct.ComplexArray = type { ptr, ptr }

; Function Attrs: nounwind uwtable
define double @densmatr_calcFidelity(ptr noundef byval(%struct.Qureg) align 8 %0, ptr noundef byval(%struct.Qureg) align 8 %1) #0 {
  %3 = alloca ptr, align 8
  %4 = alloca ptr, align 8
  %5 = alloca double, align 8
  call void @llvm.lifetime.start.p0(i64 8, ptr %3) #6
  %6 = getelementptr inbounds nuw %struct.Qureg, ptr %0, i32 0, i32 8
  %7 = getelementptr inbounds nuw %struct.ComplexArray, ptr %6, i32 0, i32 0
  %8 = load ptr, ptr %7, align 8, !tbaa !10
  store ptr %8, ptr %3, align 8, !tbaa !17
  call void @llvm.lifetime.start.p0(i64 8, ptr %4) #6
  %9 = getelementptr inbounds nuw %struct.Qureg, ptr %0, i32 0, i32 8
  %10 = getelementptr inbounds nuw %struct.ComplexArray, ptr %9, i32 0, i32 1
  %11 = load ptr, ptr %10, align 8, !tbaa !18
  store ptr %11, ptr %4, align 8, !tbaa !17
  %12 = getelementptr inbounds nuw %struct.Qureg, ptr %1, i32 0, i32 7
  %13 = getelementptr inbounds nuw %struct.ComplexArray, ptr %12, i32 0, i32 0
  %14 = load ptr, ptr %13, align 8, !tbaa !19
  %15 = getelementptr inbounds nuw %struct.Qureg, ptr %0, i32 0, i32 8
  %16 = getelementptr inbounds nuw %struct.ComplexArray, ptr %15, i32 0, i32 0
  store ptr %14, ptr %16, align 8, !tbaa !10
  %17 = getelementptr inbounds nuw %struct.Qureg, ptr %1, i32 0, i32 7
  %18 = getelementptr inbounds nuw %struct.ComplexArray, ptr %17, i32 0, i32 1
  %19 = load ptr, ptr %18, align 8, !tbaa !20
  %20 = getelementptr inbounds nuw %struct.Qureg, ptr %0, i32 0, i32 8
  %21 = getelementptr inbounds nuw %struct.ComplexArray, ptr %20, i32 0, i32 1
  store ptr %19, ptr %21, align 8, !tbaa !18
  call void @llvm.lifetime.start.p0(i64 8, ptr %5) #6
  %22 = call double @densmatr_calcFidelityLocal(ptr noundef byval(%struct.Qureg) align 8 %0, ptr noundef byval(%struct.Qureg) align 8 %1)
  store double %22, ptr %5, align 8, !tbaa !8
  %23 = load ptr, ptr %3, align 8, !tbaa !17
  %24 = getelementptr inbounds nuw %struct.Qureg, ptr %0, i32 0, i32 8
  %25 = getelementptr inbounds nuw %struct.ComplexArray, ptr %24, i32 0, i32 0
  store ptr %23, ptr %25, align 8, !tbaa !10
  %26 = load ptr, ptr %4, align 8, !tbaa !17
  %27 = getelementptr inbounds nuw %struct.Qureg, ptr %0, i32 0, i32 8
  %28 = getelementptr inbounds nuw %struct.ComplexArray, ptr %27, i32 0, i32 1
  store ptr %26, ptr %28, align 8, !tbaa !18
  %29 = load double, ptr %5, align 8, !tbaa !8
  call void @llvm.lifetime.end.p0(i64 8, ptr %5) #6
  call void @llvm.lifetime.end.p0(i64 8, ptr %4) #6
  call void @llvm.lifetime.end.p0(i64 8, ptr %3) #6
  ret double %29
}